target datalayout = "e-m:e-p270:32:32-p271:32:32-p272:64:64-i64:64-i128:128-f80:128-n8:16:32:64-S128"
target triple = "x86_64-pc-linux-gnu"

%struct.RTSPMessageHeader = type { i32, i32, i32, i64, i64, [8 x %struct.RTSPTransportField], i32, [512 x i8], [4096 x i8], [64 x i8], [64 x i8], i32, i32, [256 x i8], [64 x i8], [64 x i8] }
%struct.RTSPTransportField = type { i32, i32, i32, i32, i32, i32, i32, i32, i32, i32, %struct.sockaddr_storage, [47 x i8], i32, i32 }
%struct.sockaddr_storage = type { i16, [118 x i8], i64 }
%struct.AVFormatContext = type { ptr, ptr, ptr, ptr, ptr, i32, i32, ptr, i32, ptr, i32, ptr, ptr, i64, i64, i64, i32, i32, i32, i64, i64, ptr, i32, i32, ptr, i32, i32, i32, i32, ptr, i64, i32, i32, %struct.AVIOInterruptCB, i32, i32, i32, i32, i64, i32, i32, i32, i32, i32, i32, i32, i32, i32, i32, i32, i32, i64, i32, i32, i32, i32, i32, ptr, ptr, ptr, ptr, i32, ptr, ptr, ptr, ptr, i32, ptr, ptr, i64, ptr, ptr, ptr, i64 }
%struct.AVIOInterruptCB = type { ptr, ptr }
%struct.RTSPState = type { ptr, ptr, i32, ptr, i32, i64, i32, [512 x i8], i32, i64, i32, i32, i32, [64 x i8], [128 x i8], %struct.HTTPAuthState, [2048 x i8], ptr, i32, ptr, ptr, [1024 x i8], ptr, i64, [4096 x i8], ptr, i32, i32, ptr, i32, i32, ptr, i32, i64, ptr, i32, i32, i32, i32, i32, i32, i32, i32, i32, i32, i64, i32, ptr, [4 x i8], i32, i32, ptr }
%struct.HTTPAuthState = type { i32, [200 x i8], %struct.DigestParams, i32 }
%struct.DigestParams = type { [300 x i8], [10 x i8], [30 x i8], [300 x i8], [10 x i8], i32 }

@.str.3 = private unnamed_addr constant [26 x i8] c"Accept: application/sdp\0D\0A\00", align 1
@.str.4 = private unnamed_addr constant [44 x i8] c"Require: com.real.retain-entity-for-setup\0D\0A\00", align 1
@.str.5 = private unnamed_addr constant [9 x i8] c"DESCRIBE\00", align 1
@.str.6 = private unnamed_addr constant [9 x i8] c"SDP:\0A%s\0A\00", align 1

; Function Attrs: inlinehint nounwind uwtable
define internal i32 @ff_rtsp_averror(i32 noundef %0, i32 noundef %1) #3 {
  %3 = alloca i32, align 4
  %4 = alloca i32, align 4
  store i32 %0, ptr %3, align 4, !tbaa !28
  store i32 %1, ptr %4, align 4, !tbaa !28
  %5 = load i32, ptr %3, align 4, !tbaa !28
  %6 = load i32, ptr %4, align 4, !tbaa !28
  %7 = call i32 @ff_http_averror(i32 noundef %5, i32 noundef %6)
  ret i32 %7
}

; Function Attrs: nounwind uwtable
define i32 @ff_rtsp_setup_input_streams(ptr noundef %0, ptr noundef %1) #0 {
  %3 = alloca i32, align 4
  %4 = alloca ptr, align 8
  %5 = alloca ptr, align 8
  %6 = alloca ptr, align 8
  %7 = alloca [4096 x i8], align 16
  %8 = alloca ptr, align 8
  %9 = alloca i32, align 4
  %10 = alloca i32, align 4
  store ptr %0, ptr %4, align 8, !tbaa !4
  store ptr %1, ptr %5, align 8, !tbaa !48
  call void @llvm.lifetime.start.p0(i64 8, ptr %6) #10
  %11 = load ptr, ptr %4, align 8, !tbaa !4
  %12 = getelementptr inbounds nuw %struct.AVFormatContext, ptr %11, i32 0, i32 3
  %13 = load ptr, ptr %12, align 8, !tbaa !9
  store ptr %13, ptr %6, align 8, !tbaa !26
  call void @llvm.lifetime.start.p0(i64 4096, ptr %7) #10
  call void @llvm.lifetime.start.p0(i64 8, ptr %8) #10
  store ptr null, ptr %8, align 8, !tbaa !40
  call void @llvm.lifetime.start.p0(i64 4, ptr %9) #10
  %14 = getelementptr inbounds [4096 x i8], ptr %7, i64 0, i64 0
  %15 = call i32 (ptr, i64, ptr, ...) @snprintf(ptr noundef %14, i64 noundef 4096, ptr noundef @.str.3) #10
  %16 = load ptr, ptr %6, align 8, !tbaa !26
  %17 = getelementptr inbounds nuw %struct.RTSPState, ptr %16, i32 0, i32 12
  %18 = load i32, ptr %17, align 8, !tbaa !58
  %19 = icmp eq i32 %18, 1
  br i1 %19, label %20, label %23

20:                                               ; preds = %2
  %21 = getelementptr inbounds [4096 x i8], ptr %7, i64 0, i64 0
  %22 = call i64 @av_strlcat(ptr noundef %21, ptr noundef @.str.4, i64 noundef 4096)
  br label %23

23:                                               ; preds = %20, %2
  %24 = load ptr, ptr %4, align 8, !tbaa !4
  %25 = load ptr, ptr %6, align 8, !tbaa !26
  %26 = getelementptr inbounds nuw %struct.RTSPState, ptr %25, i32 0, i32 24
  %27 = getelementptr inbounds [4096 x i8], ptr %26, i64 0, i64 0
  %28 = getelementptr inbounds [4096 x i8], ptr %7, i64 0, i64 0
  %29 = load ptr, ptr %5, align 8, !tbaa !48
  %30 = call i32 @ff_rtsp_send_cmd(ptr noundef %24, ptr noundef @.str.5, ptr noundef %27, ptr noundef %28, ptr noundef %29, ptr noundef %8)
  %31 = load ptr, ptr %5, align 8, !tbaa !48
  %32 = getelementptr inbounds nuw %struct.RTSPMessageHeader, ptr %31, i32 0, i32 1
  %33 = load i32, ptr %32, align 4, !tbaa !59
  %34 = icmp ne i32 %33, 200
  br i1 %34, label %35, label %40

35:                                               ; preds = %23
  call void @av_freep(ptr noundef %8)
  %36 = load ptr, ptr %5, align 8, !tbaa !48
  %37 = getelementptr inbounds nuw %struct.RTSPMessageHeader, ptr %36, i32 0, i32 1
  %38 = load i32, ptr %37, align 4, !tbaa !59
  %39 = call i32 @ff_rtsp_averror(i32 noundef %38, i32 noundef -1094995529)
  store i32 %39, ptr %3, align 4
  store i32 1, ptr %10, align 4
  br label %55

40:                                               ; preds = %23
  %41 = load ptr, ptr %8, align 8, !tbaa !40
  %42 = icmp ne ptr %41, null
  br i1 %42, label %44, label %43

43:                                               ; preds = %40
  store i32 -1094995529, ptr %3, align 4
  store i32 1, ptr %10, align 4
  br label %55

44:                                               ; preds = %40
  %45 = load ptr, ptr %4, align 8, !tbaa !4
  %46 = load ptr, ptr %8, align 8, !tbaa !40
  call void (ptr, i32, ptr, ...) @av_log(ptr noundef %45, i32 noundef 40, ptr noundef @.str.6, ptr noundef %46)
  %47 = load ptr, ptr %4, align 8, !tbaa !4
  %48 = load ptr, ptr %8, align 8, !tbaa !40
  %49 = call i32 @ff_sdp_parse(ptr noundef %47, ptr noundef %48)
  store i32 %49, ptr %9, align 4, !tbaa !28
  call void @av_freep(ptr noundef %8)
  %50 = load i32, ptr %9, align 4, !tbaa !28
  %51 = icmp slt i32 %50, 0
  br i1 %51, label %52, label %54

52:                                               ; preds = %44
  %53 = load i32, ptr %9, align 4, !tbaa !28
  store i32 %53, ptr %3, align 4
  store i32 1, ptr %10, align 4
  br label %55

54:                                               ; preds = %44
  store i32 0, ptr %3, align 4
  store i32 1, ptr %10, align 4
  br label %55

55:                                               ; preds = %54, %52, %43, %35
  call void @llvm.lifetime.end.p0(i64 4, ptr %9) #10
  call void @llvm.lifetime.end.p0(i64 8, ptr %8) #10
  call void @llvm.lifetime.end.p0(i64 4096, ptr %7) #10
  call void @llvm.lifetime.end.p0(i64 8, ptr %6) #10
  %56 = load i32, ptr %3, align 4
  ret i32 %56
}