; Function Attrs: nounwind uwtable
define i32 @ff_rtsp_setup_input_streams(ptr noundef %0, ptr noundef %1) local_unnamed_addr #0 {
  %3 = alloca [4096 x i8], align 16
  %4 = alloca ptr, align 8
  %5 = getelementptr inbounds nuw i8, ptr %0, i64 24
  %6 = load ptr, ptr %5, align 8, !tbaa !4
  call void @llvm.lifetime.start.p0(i64 4096, ptr nonnull %3) #11
  call void @llvm.lifetime.start.p0(i64 8, ptr nonnull %4) #11
  store ptr null, ptr %4, align 8, !tbaa !47
  call void @llvm.memcpy.p0.p0.i64(ptr noundef nonnull align 16 dereferenceable(26) %3, ptr noundef nonnull align 1 dereferenceable(26) @.str.3, i64 26, i1 false)
  %7 = getelementptr inbounds nuw i8, ptr %6, i64 584
  %8 = load i32, ptr %7, align 8, !tbaa !48
  %9 = icmp eq i32 %8, 1
  br i1 %9, label %10, label %12

10:                                               ; preds = %2
  %11 = call i64 @av_strlcat(ptr noundef nonnull %3, ptr noundef nonnull @.str.4, i64 noundef 4096) #11
  br label %12

12:                                               ; preds = %10, %2
  %13 = getelementptr inbounds nuw i8, ptr %6, i64 4768
  %14 = call i32 @ff_rtsp_send_cmd(ptr noundef nonnull %0, ptr noundef nonnull @.str.5, ptr noundef nonnull %13, ptr noundef nonnull %3, ptr noundef %1, ptr noundef nonnull %4) #11
  %15 = getelementptr inbounds nuw i8, ptr %1, i64 4
  %16 = load i32, ptr %15, align 4, !tbaa !49
  %.not = icmp eq i32 %16, 200
  br i1 %.not, label %20, label %17

17:                                               ; preds = %12
  call void @av_freep(ptr noundef nonnull %4) #11
  %18 = load i32, ptr %15, align 4, !tbaa !49
  %19 = call i32 @ff_http_averror(i32 noundef %18, i32 noundef -1094995529) #11
  br label %25

20:                                               ; preds = %12
  %21 = load ptr, ptr %4, align 8, !tbaa !47
  %.not13 = icmp eq ptr %21, null
  br i1 %.not13, label %25, label %22

22:                                               ; preds = %20
  call void (ptr, i32, ptr, ...) @av_log(ptr noundef nonnull %0, i32 noundef 40, ptr noundef nonnull @.str.6, ptr noundef nonnull %21) #11
  %23 = load ptr, ptr %4, align 8, !tbaa !47
  %24 = call i32 @ff_sdp_parse(ptr noundef nonnull %0, ptr noundef %23) #11
  call void @av_freep(ptr noundef nonnull %4) #11
  %. = call i32 @llvm.smin.i32(i32 %24, i32 0)
  br label %25

25:                                               ; preds = %22, %20, %17
  %.0 = phi i32 [ %19, %17 ], [ -1094995529, %20 ], [ %., %22 ]
  call void @llvm.lifetime.end.p0(i64 8, ptr nonnull %4) #11
  call void @llvm.lifetime.end.p0(i64 4096, ptr nonnull %3) #11
  ret i32 %.0
}